; Function Attrs: mustprogress uwtable
define void @_ZN13device_list_t14handle_commandE9command_t(ptr nocapture noundef nonnull readonly align 8 dereferenceable(88) %0, ptr noundef %1) local_unnamed_addr #3 align 2 personality ptr @__gxx_personality_v0 {
  %3 = alloca %class.command_t, align 8
  %4 = getelementptr inbounds i8, ptr %1, i64 8
  %5 = load i64, ptr %4, align 8
  %6 = lshr i64 %5, 56
  %7 = load ptr, ptr %0, align 8
  %8 = getelementptr inbounds ptr, ptr %7, i64 %6
  %9 = load ptr, ptr %8, align 8
  call void @llvm.memcpy.p0.p0.i64(ptr noundef nonnull align 8 dereferenceable(16) %3, ptr noundef nonnull align 8 dereferenceable(16) %1, i64 16, i1 false)
  %10 = getelementptr inbounds i8, ptr %3, i64 16
  %11 = getelementptr inbounds i8, ptr %3, i64 32
  %12 = getelementptr inbounds i8, ptr %1, i64 32
  call void @llvm.memset.p0.i64(ptr noundef nonnull align 8 dereferenceable(32) %10, i8 0, i64 32, i1 false)
  %13 = load ptr, ptr %12, align 8
  %.not.i.i.not.i.i = icmp eq ptr %13, null
  br i1 %.not.i.i.not.i.i, label %_ZN9command_tC2ERKS_.exit, label %14

14:                                               ; preds = %2
  %15 = getelementptr inbounds i8, ptr %1, i64 16
  %16 = invoke noundef zeroext i1 %13(ptr noundef nonnull align 8 dereferenceable(16) %10, ptr noundef nonnull align 8 dereferenceable(16) %15, i32 noundef 2)
          to label %17 unwind label %19

17:                                               ; preds = %14
  %18 = load <2 x ptr>, ptr %12, align 8
  store <2 x ptr> %18, ptr %11, align 8
  br label %_ZN9command_tC2ERKS_.exit

19:                                               ; preds = %14
  %20 = landingpad { ptr, i32 }
          cleanup
  %21 = load ptr, ptr %11, align 8
  %.not.i.i.i = icmp eq ptr %21, null
  br i1 %.not.i.i.i, label %common.resume, label %22

22:                                               ; preds = %19
  %23 = invoke noundef zeroext i1 %21(ptr noundef nonnull align 8 dereferenceable(16) %10, ptr noundef nonnull align 8 dereferenceable(16) %10, i32 noundef 3)
          to label %common.resume unwind label %24

24:                                               ; preds = %22
  %25 = landingpad { ptr, i32 }
          catch ptr null
  %26 = extractvalue { ptr, i32 } %25, 0
  call void @__clang_call_terminate(ptr %26) #24
  unreachable

common.resume:                                    ; preds = %37, %34, %19, %22
  %common.resume.op = phi { ptr, i32 } [ %20, %22 ], [ %20, %19 ], [ %35, %34 ], [ %35, %37 ]
  resume { ptr, i32 } %common.resume.op

_ZN9command_tC2ERKS_.exit:                        ; preds = %2, %17
  invoke void @_ZN8device_t14handle_commandE9command_t(ptr noundef nonnull align 8 dereferenceable(56) %9, ptr noundef nonnull %3)
          to label %27 unwind label %34

27:                                               ; preds = %_ZN9command_tC2ERKS_.exit
  %28 = load ptr, ptr %11, align 8
  %.not.i.i.i2 = icmp eq ptr %28, null
  br i1 %.not.i.i.i2, label %_ZN9command_tD2Ev.exit, label %29

29:                                               ; preds = %27
  %30 = invoke noundef zeroext i1 %28(ptr noundef nonnull align 8 dereferenceable(16) %10, ptr noundef nonnull align 8 dereferenceable(16) %10, i32 noundef 3)
          to label %_ZN9command_tD2Ev.exit unwind label %31

31:                                               ; preds = %29
  %32 = landingpad { ptr, i32 }
          catch ptr null
  %33 = extractvalue { ptr, i32 } %32, 0
  call void @__clang_call_terminate(ptr %33) #24
  unreachable

_ZN9command_tD2Ev.exit:                           ; preds = %27, %29
  ret void

34:                                               ; preds = %_ZN9command_tC2ERKS_.exit
  %35 = landingpad { ptr, i32 }
          cleanup
  %36 = load ptr, ptr %11, align 8
  %.not.i.i.i3 = icmp eq ptr %36, null
  br i1 %.not.i.i.i3, label %common.resume, label %37

37:                                               ; preds = %34
  %38 = invoke noundef zeroext i1 %36(ptr noundef nonnull align 8 dereferenceable(16) %10, ptr noundef nonnull align 8 dereferenceable(16) %10, i32 noundef 3)
          to label %common.resume unwind label %39

39:                                               ; preds = %37
  %40 = landingpad { ptr, i32 }
          catch ptr null
  %41 = extractvalue { ptr, i32 } %40, 0
  call void @__clang_call_terminate(ptr %41) #24
  unreachable
}